; Function Attrs: mustprogress nofree nounwind memory(readwrite, inaccessiblemem: none) uwtable
define void @_Z8wcsncatzPwPKwm(ptr nocapture noundef %0, ptr nocapture noundef readonly %1, i64 noundef %2) local_unnamed_addr #10 {
  %4 = tail call i64 @wcslen(ptr noundef %0) #17
  %5 = icmp ult i64 %4, %2
  br i1 %5, label %.preheader.i, label %_Z8wcsncpyzPwPKwm.exit

.preheader.i:                                     ; preds = %3
  %6 = getelementptr inbounds i32, ptr %0, i64 %4
  %7 = xor i64 %4, -1
  %8 = add i64 %7, %2
  %.not1012.i = icmp eq i64 %8, 0
  br i1 %.not1012.i, label %.critedge.i, label %.lr.ph.i

.lr.ph.i:                                         ; preds = %.preheader.i, %11
  %9 = phi i64 [ %14, %11 ], [ %8, %.preheader.i ]
  %.0514.i = phi ptr [ %12, %11 ], [ %1, %.preheader.i ]
  %.0613.i = phi ptr [ %13, %11 ], [ %6, %.preheader.i ]
  %10 = load i32, ptr %.0514.i, align 4
  %.not11.i = icmp eq i32 %10, 0
  br i1 %.not11.i, label %.critedge.i, label %11

11:                                               ; preds = %.lr.ph.i
  %12 = getelementptr inbounds i8, ptr %.0514.i, i64 4
  %13 = getelementptr inbounds i8, ptr %.0613.i, i64 4
  store i32 %10, ptr %.0613.i, align 4
  %14 = add i64 %9, -1
  %.not10.i = icmp eq i64 %14, 0
  br i1 %.not10.i, label %.critedge.i, label %.lr.ph.i, !llvm.loop !14

.critedge.i:                                      ; preds = %11, %.lr.ph.i, %.preheader.i
  %.06.lcssa.i = phi ptr [ %6, %.preheader.i ], [ %.0613.i, %.lr.ph.i ], [ %13, %11 ]
  store i32 0, ptr %.06.lcssa.i, align 4
  br label %_Z8wcsncpyzPwPKwm.exit

_Z8wcsncpyzPwPKwm.exit:                           ; preds = %.critedge.i, %3
  ret void
}